target datalayout = "e-m:e-p270:32:32-p271:32:32-p272:64:64-i64:64-i128:128-f80:128-n8:16:32:64-S128"
target triple = "x86_64-pc-linux-gnu"

%struct.uv_loop_s = type { ptr, i32, %struct.uv__queue, %union.anon.2, ptr, i32, i64, i32, %struct.uv__queue, %struct.uv__queue, ptr, i32, i32, %struct.uv__queue, %union.pthread_mutex_t, %struct.uv_async_s, %union.pthread_rwlock_t, ptr, %struct.uv__queue, %struct.uv__queue, %struct.uv__queue, %struct.uv__queue, %struct.uv__queue, ptr, %struct.uv__io_s, i32, %struct.anon, i64, i64, [2 x i32], %struct.uv__io_s, %struct.uv_signal_s, i32, %struct.uv__io_s, ptr, i32 }
%union.anon.2 = type { ptr }
%union.pthread_mutex_t = type { %struct.__pthread_mutex_s }
%struct.__pthread_mutex_s = type { i32, i32, i32, i32, i32, i16, i16, %struct.__pthread_internal_list }
%struct.__pthread_internal_list = type { ptr, ptr }
%struct.uv_async_s = type { ptr, ptr, i32, ptr, %struct.uv__queue, %union.anon.3, ptr, i32, ptr, %struct.uv__queue, i32 }
%union.anon.3 = type { [4 x ptr] }
%union.pthread_rwlock_t = type { %struct.__pthread_rwlock_arch_t }
%struct.__pthread_rwlock_arch_t = type { i32, i32, i32, i32, i32, i32, i32, i32, i8, [7 x i8], i64, i32 }
%struct.uv__queue = type { ptr, ptr }
%struct.anon = type { ptr, i32 }
%struct.uv_signal_s = type { ptr, ptr, i32, ptr, %struct.uv__queue, %union.anon.4, ptr, i32, ptr, i32, %struct.anon.5, i32, i32 }
%union.anon.4 = type { [4 x ptr] }
%struct.anon.5 = type { ptr, ptr, ptr, i32 }
%struct.uv__io_s = type { ptr, %struct.uv__queue, %struct.uv__queue, i32, i32, i32 }
%struct.uv_handle_s = type { ptr, ptr, i32, ptr, %struct.uv__queue, %union.anon.6, ptr, i32 }
%union.anon.6 = type { [4 x ptr] }

@default_loop_ptr = internal global ptr null, align 8
@default_loop_struct = internal global %struct.uv_loop_s zeroinitializer, align 8
@stderr = external global ptr, align 8
@.str.171 = private unnamed_addr constant [6 x i8] c"async\00", align 1
@.str.172 = private unnamed_addr constant [6 x i8] c"check\00", align 1
@.str.173 = private unnamed_addr constant [9 x i8] c"fs_event\00", align 1
@.str.174 = private unnamed_addr constant [8 x i8] c"fs_poll\00", align 1
@.str.175 = private unnamed_addr constant [7 x i8] c"handle\00", align 1
@.str.176 = private unnamed_addr constant [5 x i8] c"idle\00", align 1
@.str.177 = private unnamed_addr constant [5 x i8] c"pipe\00", align 1
@.str.178 = private unnamed_addr constant [5 x i8] c"poll\00", align 1
@.str.179 = private unnamed_addr constant [8 x i8] c"prepare\00", align 1
@.str.180 = private unnamed_addr constant [8 x i8] c"process\00", align 1
@.str.181 = private unnamed_addr constant [7 x i8] c"stream\00", align 1
@.str.182 = private unnamed_addr constant [4 x i8] c"tcp\00", align 1
@.str.183 = private unnamed_addr constant [6 x i8] c"timer\00", align 1
@.str.184 = private unnamed_addr constant [4 x i8] c"tty\00", align 1
@.str.185 = private unnamed_addr constant [4 x i8] c"udp\00", align 1
@.str.186 = private unnamed_addr constant [7 x i8] c"signal\00", align 1
@.str.187 = private unnamed_addr constant [10 x i8] c"<unknown>\00", align 1
@.str.188 = private unnamed_addr constant [18 x i8] c"[%c%c%c] %-8s %p\0A\00", align 1
@.str.189 = private unnamed_addr constant [3 x i8] c"R-\00", align 1
@.str.190 = private unnamed_addr constant [3 x i8] c"A-\00", align 1
@.str.191 = private unnamed_addr constant [3 x i8] c"I-\00", align 1

; Function Attrs: nounwind uwtable
define dso_local ptr @uv_default_loop() #0 {
  %1 = alloca ptr, align 8
  %2 = load ptr, ptr @default_loop_ptr, align 8
  %3 = icmp ne ptr %2, null
  br i1 %3, label %4, label %6

4:                                                ; preds = %0
  %5 = load ptr, ptr @default_loop_ptr, align 8
  store ptr %5, ptr %1, align 8
  br label %12

6:                                                ; preds = %0
  %7 = call i32 @uv_loop_init(ptr noundef @default_loop_struct)
  %8 = icmp ne i32 %7, 0
  br i1 %8, label %9, label %10

9:                                                ; preds = %6
  store ptr null, ptr %1, align 8
  br label %12

10:                                               ; preds = %6
  store ptr @default_loop_struct, ptr @default_loop_ptr, align 8
  %11 = load ptr, ptr @default_loop_ptr, align 8
  store ptr %11, ptr %1, align 8
  br label %12

12:                                               ; preds = %10, %9, %4
  %13 = load ptr, ptr %1, align 8
  ret ptr %13
}

; Function Attrs: nounwind uwtable
define internal void @uv__print_handles(ptr noundef %0, i32 noundef %1, ptr noundef %2) #0 {
  %4 = alloca ptr, align 8
  %5 = alloca i32, align 4
  %6 = alloca ptr, align 8
  %7 = alloca ptr, align 8
  %8 = alloca ptr, align 8
  %9 = alloca ptr, align 8
  store ptr %0, ptr %4, align 8
  store i32 %1, ptr %5, align 4
  store ptr %2, ptr %6, align 8
  call void @llvm.lifetime.start.p0(i64 8, ptr %7) #13
  call void @llvm.lifetime.start.p0(i64 8, ptr %8) #13
  call void @llvm.lifetime.start.p0(i64 8, ptr %9) #13
  %10 = load ptr, ptr %4, align 8
  %11 = icmp eq ptr %10, null
  br i1 %11, label %12, label %14

12:                                               ; preds = %3
  %13 = call ptr @uv_default_loop()
  store ptr %13, ptr %4, align 8
  br label %14

14:                                               ; preds = %12, %3
  %15 = load ptr, ptr %6, align 8
  %16 = icmp eq ptr %15, null
  br i1 %16, label %17, label %19

17:                                               ; preds = %14
  %18 = load ptr, ptr @stderr, align 8
  store ptr %18, ptr %6, align 8
  br label %19

19:                                               ; preds = %17, %14
  %20 = load ptr, ptr %4, align 8
  %21 = getelementptr inbounds nuw %struct.uv_loop_s, ptr %20, i32 0, i32 2
  %22 = getelementptr inbounds nuw %struct.uv__queue, ptr %21, i32 0, i32 0
  %23 = load ptr, ptr %22, align 8
  store ptr %23, ptr %8, align 8
  br label %24

24:                                               ; preds = %100, %19
  %25 = load ptr, ptr %8, align 8
  %26 = load ptr, ptr %4, align 8
  %27 = getelementptr inbounds nuw %struct.uv_loop_s, ptr %26, i32 0, i32 2
  %28 = icmp ne ptr %25, %27
  br i1 %28, label %29, label %104

29:                                               ; preds = %24
  %30 = load ptr, ptr %8, align 8
  %31 = getelementptr inbounds i8, ptr %30, i64 -32
  store ptr %31, ptr %9, align 8
  %32 = load i32, ptr %5, align 4
  %33 = icmp ne i32 %32, 0
  br i1 %33, label %34, label %41

34:                                               ; preds = %29
  %35 = load ptr, ptr %9, align 8
  %36 = getelementptr inbounds nuw %struct.uv_handle_s, ptr %35, i32 0, i32 7
  %37 = load i32, ptr %36, align 8
  %38 = and i32 %37, 4
  %39 = icmp ne i32 %38, 0
  br i1 %39, label %41, label %40

40:                                               ; preds = %34
  br label %100

41:                                               ; preds = %34, %29
  %42 = load ptr, ptr %9, align 8
  %43 = getelementptr inbounds nuw %struct.uv_handle_s, ptr %42, i32 0, i32 2
  %44 = load i32, ptr %43, align 8
  switch i32 %44, label %61 [
    i32 1, label %45
    i32 2, label %46
    i32 3, label %47
    i32 4, label %48
    i32 5, label %49
    i32 6, label %50
    i32 7, label %51
    i32 8, label %52
    i32 9, label %53
    i32 10, label %54
    i32 11, label %55
    i32 12, label %56
    i32 13, label %57
    i32 14, label %58
    i32 15, label %59
    i32 16, label %60
  ]

45:                                               ; preds = %41
  store ptr @.str.171, ptr %7, align 8
  br label %62

46:                                               ; preds = %41
  store ptr @.str.172, ptr %7, align 8
  br label %62

47:                                               ; preds = %41
  store ptr @.str.173, ptr %7, align 8
  br label %62

48:                                               ; preds = %41
  store ptr @.str.174, ptr %7, align 8
  br label %62

49:                                               ; preds = %41
  store ptr @.str.175, ptr %7, align 8
  br label %62

50:                                               ; preds = %41
  store ptr @.str.176, ptr %7, align 8
  br label %62

51:                                               ; preds = %41
  store ptr @.str.177, ptr %7, align 8
  br label %62

52:                                               ; preds = %41
  store ptr @.str.178, ptr %7, align 8
  br label %62

53:                                               ; preds = %41
  store ptr @.str.179, ptr %7, align 8
  br label %62

54:                                               ; preds = %41
  store ptr @.str.180, ptr %7, align 8
  br label %62

55:                                               ; preds = %41
  store ptr @.str.181, ptr %7, align 8
  br label %62

56:                                               ; preds = %41
  store ptr @.str.182, ptr %7, align 8
  br label %62

57:                                               ; preds = %41
  store ptr @.str.183, ptr %7, align 8
  br label %62

58:                                               ; preds = %41
  store ptr @.str.184, ptr %7, align 8
  br label %62

59:                                               ; preds = %41
  store ptr @.str.185, ptr %7, align 8
  br label %62

60:                                               ; preds = %41
  store ptr @.str.186, ptr %7, align 8
  br label %62

61:                                               ; preds = %41
  store ptr @.str.187, ptr %7, align 8
  br label %62

62:                                               ; preds = %61, %60, %59, %58, %57, %56, %55, %54, %53, %52, %51, %50, %49, %48, %47, %46, %45
  %63 = load ptr, ptr %6, align 8
  %64 = load ptr, ptr %9, align 8
  %65 = getelementptr inbounds nuw %struct.uv_handle_s, ptr %64, i32 0, i32 7
  %66 = load i32, ptr %65, align 8
  %67 = and i32 %66, 8
  %68 = icmp ne i32 %67, 0
  %69 = xor i1 %68, true
  %70 = zext i1 %69 to i32
  %71 = sext i32 %70 to i64
  %72 = getelementptr inbounds [3 x i8], ptr @.str.189, i64 0, i64 %71
  %73 = load i8, ptr %72, align 1
  %74 = sext i8 %73 to i32
  %75 = load ptr, ptr %9, align 8
  %76 = getelementptr inbounds nuw %struct.uv_handle_s, ptr %75, i32 0, i32 7
  %77 = load i32, ptr %76, align 8
  %78 = and i32 %77, 4
  %79 = icmp ne i32 %78, 0
  %80 = xor i1 %79, true
  %81 = zext i1 %80 to i32
  %82 = sext i32 %81 to i64
  %83 = getelementptr inbounds [3 x i8], ptr @.str.190, i64 0, i64 %82
  %84 = load i8, ptr %83, align 1
  %85 = sext i8 %84 to i32
  %86 = load ptr, ptr %9, align 8
  %87 = getelementptr inbounds nuw %struct.uv_handle_s, ptr %86, i32 0, i32 7
  %88 = load i32, ptr %87, align 8
  %89 = and i32 %88, 16
  %90 = icmp ne i32 %89, 0
  %91 = xor i1 %90, true
  %92 = zext i1 %91 to i32
  %93 = sext i32 %92 to i64
  %94 = getelementptr inbounds [3 x i8], ptr @.str.191, i64 0, i64 %93
  %95 = load i8, ptr %94, align 1
  %96 = sext i8 %95 to i32
  %97 = load ptr, ptr %7, align 8
  %98 = load ptr, ptr %9, align 8
  %99 = call i32 (ptr, ptr, ...) @fprintf(ptr noundef %63, ptr noundef @.str.188, i32 noundef %74, i32 noundef %85, i32 noundef %96, ptr noundef %97, ptr noundef %98) #13
  br label %100

100:                                              ; preds = %62, %40
  %101 = load ptr, ptr %8, align 8
  %102 = getelementptr inbounds nuw %struct.uv__queue, ptr %101, i32 0, i32 0
  %103 = load ptr, ptr %102, align 8
  store ptr %103, ptr %8, align 8
  br label %24

104:                                              ; preds = %24
  call void @llvm.lifetime.end.p0(i64 8, ptr %9) #13
  call void @llvm.lifetime.end.p0(i64 8, ptr %8) #13
  call void @llvm.lifetime.end.p0(i64 8, ptr %7) #13
  ret void
}