; Function Attrs: nounwind uwtable
define internal fastcc void @uv__print_handles(ptr noundef readonly captures(address) %0, i32 noundef range(i32 0, 2) %1, ptr noundef captures(address_is_null) %2) unnamed_addr #0 {
  %4 = icmp eq ptr %0, null
  br i1 %4, label %5, label %uv_default_loop.exit

5:                                                ; preds = %3
  %6 = load ptr, ptr @default_loop_ptr, align 8
  %.not.i = icmp eq ptr %6, null
  br i1 %.not.i, label %7, label %uv_default_loop.exit

7:                                                ; preds = %5
  %8 = tail call i32 @uv_loop_init(ptr noundef nonnull @default_loop_struct) #26
  %.not2.i = icmp eq i32 %8, 0
  tail call void @llvm.assume(i1 %.not2.i)
  store ptr @default_loop_struct, ptr @default_loop_ptr, align 8
  br label %uv_default_loop.exit

uv_default_loop.exit:                             ; preds = %7, %5, %3
  %.0 = phi ptr [ %0, %3 ], [ @default_loop_struct, %7 ], [ %6, %5 ]
  %9 = icmp eq ptr %2, null
  %10 = load ptr, ptr @stderr, align 8
  %spec.select = select i1 %9, ptr %10, ptr %2
  %11 = getelementptr inbounds nuw i8, ptr %.0, i64 16
  %.01527 = load ptr, ptr %11, align 8
  %.not28 = icmp eq ptr %.01527, %11
  br i1 %.not28, label %._crit_edge, label %.lr.ph

.lr.ph:                                           ; preds = %uv_default_loop.exit
  %.not20 = icmp eq i32 %1, 0
  br i1 %.not20, label %.lr.ph.split.us, label %.lr.ph.split

.lr.ph.split.us:                                  ; preds = %.lr.ph, %17
  %.01529.us = phi ptr [ %.015.us, %17 ], [ %.01527, %.lr.ph ]
  %12 = getelementptr inbounds i8, ptr %.01529.us, i64 -32
  %13 = getelementptr inbounds i8, ptr %.01529.us, i64 -16
  %14 = load i32, ptr %13, align 8
  %switch.tableidx = add i32 %14, -1
  %15 = icmp ult i32 %switch.tableidx, 16
  br i1 %15, label %switch.lookup, label %17

switch.lookup:                                    ; preds = %.lr.ph.split.us
  %16 = zext nneg i32 %switch.tableidx to i64
  %switch.gep = getelementptr inbounds nuw [16 x ptr], ptr @switch.table.uv__print_handles.2, i64 0, i64 %16
  %switch.load = load ptr, ptr %switch.gep, align 8
  br label %17

17:                                               ; preds = %.lr.ph.split.us, %switch.lookup
  %.016.us = phi ptr [ %switch.load, %switch.lookup ], [ @.str.187, %.lr.ph.split.us ]
  %18 = getelementptr inbounds nuw i8, ptr %.01529.us, i64 56
  %19 = load i32, ptr %18, align 8
  %20 = lshr i32 %19, 3
  %.lobit.us = and i32 %20, 1
  %21 = xor i32 %.lobit.us, 1
  %22 = zext nneg i32 %21 to i64
  %23 = getelementptr inbounds nuw [3 x i8], ptr @.str.189, i64 0, i64 %22
  %24 = load i8, ptr %23, align 1
  %25 = sext i8 %24 to i32
  %26 = lshr i32 %19, 2
  %.lobit24.us = and i32 %26, 1
  %27 = xor i32 %.lobit24.us, 1
  %28 = zext nneg i32 %27 to i64
  %29 = getelementptr inbounds nuw [3 x i8], ptr @.str.190, i64 0, i64 %28
  %30 = load i8, ptr %29, align 1
  %31 = sext i8 %30 to i32
  %32 = lshr i32 %19, 4
  %.lobit26.us = and i32 %32, 1
  %33 = xor i32 %.lobit26.us, 1
  %34 = zext nneg i32 %33 to i64
  %35 = getelementptr inbounds nuw [3 x i8], ptr @.str.191, i64 0, i64 %34
  %36 = load i8, ptr %35, align 1
  %37 = sext i8 %36 to i32
  %38 = tail call i32 (ptr, ptr, ...) @fprintf(ptr noundef %spec.select, ptr noundef nonnull @.str.188, i32 noundef %25, i32 noundef %31, i32 noundef %37, ptr noundef nonnull %.016.us, ptr noundef nonnull %12) #26
  %.015.us = load ptr, ptr %.01529.us, align 8
  %.not.us = icmp eq ptr %.015.us, %11
  br i1 %.not.us, label %._crit_edge, label %.lr.ph.split.us

.lr.ph.split:                                     ; preds = %.lr.ph, %62
  %.01529 = phi ptr [ %.015, %62 ], [ %.01527, %.lr.ph ]
  %39 = getelementptr inbounds i8, ptr %.01529, i64 -32
  %40 = getelementptr inbounds nuw i8, ptr %.01529, i64 56
  %41 = load i32, ptr %40, align 8
  %42 = and i32 %41, 4
  %.not21 = icmp eq i32 %42, 0
  br i1 %.not21, label %62, label %43

43:                                               ; preds = %.lr.ph.split
  %44 = getelementptr inbounds i8, ptr %.01529, i64 -16
  %45 = load i32, ptr %44, align 8
  %switch.tableidx34 = add i32 %45, -1
  %46 = icmp ult i32 %switch.tableidx34, 16
  br i1 %46, label %switch.lookup33, label %48

switch.lookup33:                                  ; preds = %43
  %47 = zext nneg i32 %switch.tableidx34 to i64
  %switch.gep35 = getelementptr inbounds nuw [16 x ptr], ptr @switch.table.uv__print_handles.2, i64 0, i64 %47
  %switch.load36 = load ptr, ptr %switch.gep35, align 8
  br label %48

48:                                               ; preds = %43, %switch.lookup33
  %.016 = phi ptr [ %switch.load36, %switch.lookup33 ], [ @.str.187, %43 ]
  %49 = lshr i32 %41, 3
  %.lobit = and i32 %49, 1
  %50 = xor i32 %.lobit, 1
  %51 = zext nneg i32 %50 to i64
  %52 = getelementptr inbounds nuw [3 x i8], ptr @.str.189, i64 0, i64 %51
  %53 = load i8, ptr %52, align 1
  %54 = sext i8 %53 to i32
  %55 = lshr i32 %41, 4
  %.lobit26 = and i32 %55, 1
  %56 = xor i32 %.lobit26, 1
  %57 = zext nneg i32 %56 to i64
  %58 = getelementptr inbounds nuw [3 x i8], ptr @.str.191, i64 0, i64 %57
  %59 = load i8, ptr %58, align 1
  %60 = sext i8 %59 to i32
  %61 = tail call i32 (ptr, ptr, ...) @fprintf(ptr noundef %spec.select, ptr noundef nonnull @.str.188, i32 noundef %54, i32 noundef 65, i32 noundef %60, ptr noundef nonnull %.016, ptr noundef nonnull %39) #26
  br label %62

62:                                               ; preds = %.lr.ph.split, %48
  %.015 = load ptr, ptr %.01529, align 8
  %.not = icmp eq ptr %.015, %11
  br i1 %.not, label %._crit_edge, label %.lr.ph.split

._crit_edge:                                      ; preds = %62, %17, %uv_default_loop.exit
  ret void
}